target datalayout = "e-m:e-p270:32:32-p271:32:32-p272:64:64-i64:64-i128:128-f80:128-n8:16:32:64-S128"
target triple = "x86_64-pc-linux-gnu"

%"class.std::__shared_count" = type { ptr }
%"class.cv::text::ERFilterNM" = type { %"class.cv::text::ERFilter", float, i8, float, i32, float, float, %"struct.cv::Ptr.0", i32, i32, ptr, %"class.cv::Mat" }
%"class.cv::text::ERFilter" = type { %"class.cv::Algorithm" }
%"class.cv::Algorithm" = type { ptr }
%"struct.cv::Ptr.0" = type { %"class.std::shared_ptr.1" }
%"class.std::shared_ptr.1" = type { %"class.std::__shared_ptr.2" }
%"class.std::__shared_ptr.2" = type { ptr, %"class.std::__shared_count" }
%"class.cv::Mat" = type { i32, i32, i32, i32, ptr, ptr, ptr, ptr, ptr, ptr, %"struct.cv::MatSize", %"struct.cv::MatStep" }
%"struct.cv::MatSize" = type { ptr }
%"struct.cv::MatStep" = type { ptr, [2 x i64] }

; Function Attrs: mustprogress nounwind uwtable
define linkonce_odr hidden void @_ZNSt14__shared_countILN9__gnu_cxx12_Lock_policyE2EEC2Ev(ptr noundef nonnull align 8 dereferenceable(8) %0) unnamed_addr #9 comdat align 2 {
  %2 = alloca ptr, align 8
  store ptr %0, ptr %2, align 8, !tbaa !603
  %3 = load ptr, ptr %2, align 8
  %4 = getelementptr inbounds nuw %"class.std::__shared_count", ptr %3, i32 0, i32 0
  store ptr null, ptr %4, align 8, !tbaa !605
  ret void
}

; Function Attrs: mustprogress nounwind uwtable
define linkonce_odr hidden void @_ZNSt12__shared_ptrIN2cv4text8ERFilter8CallbackELN9__gnu_cxx12_Lock_policyE2EEC2Ev(ptr noundef nonnull align 8 dereferenceable(16) %0) unnamed_addr #9 comdat align 2 {
  %2 = alloca ptr, align 8
  store ptr %0, ptr %2, align 8, !tbaa !205
  %3 = load ptr, ptr %2, align 8
  %4 = getelementptr inbounds nuw %"class.std::__shared_ptr.2", ptr %3, i32 0, i32 0
  store ptr null, ptr %4, align 8, !tbaa !207
  %5 = getelementptr inbounds nuw %"class.std::__shared_ptr.2", ptr %3, i32 0, i32 1
  call void @_ZNSt14__shared_countILN9__gnu_cxx12_Lock_policyE2EEC2Ev(ptr noundef nonnull align 8 dereferenceable(8) %5) #3
  ret void
}

; Function Attrs: mustprogress nounwind uwtable
define linkonce_odr hidden void @_ZNSt10shared_ptrIN2cv4text8ERFilter8CallbackEEC2Ev(ptr noundef nonnull align 8 dereferenceable(16) %0) unnamed_addr #9 comdat align 2 {
  %2 = alloca ptr, align 8
  store ptr %0, ptr %2, align 8, !tbaa !1106
  %3 = load ptr, ptr %2, align 8
  call void @_ZNSt12__shared_ptrIN2cv4text8ERFilter8CallbackELN9__gnu_cxx12_Lock_policyE2EEC2Ev(ptr noundef nonnull align 8 dereferenceable(16) %3) #3
  ret void
}

; Function Attrs: inlinehint mustprogress nounwind uwtable
define linkonce_odr hidden void @_ZN2cv3PtrINS_4text8ERFilter8CallbackEEC2Ev(ptr noundef nonnull align 8 dereferenceable(16) %0) unnamed_addr #5 comdat align 2 {
  %2 = alloca ptr, align 8
  store ptr %0, ptr %2, align 8, !tbaa !77
  %3 = load ptr, ptr %2, align 8
  call void @_ZNSt10shared_ptrIN2cv4text8ERFilter8CallbackEEC2Ev(ptr noundef nonnull align 8 dereferenceable(16) %3) #3
  ret void
}

; Function Attrs: inlinehint mustprogress uwtable
define linkonce_odr hidden void @_ZN2cv4text8ERFilterC2Ev(ptr noundef nonnull align 8 dereferenceable(8) %0) unnamed_addr #8 comdat align 2 {
  %2 = alloca ptr, align 8
  store ptr %0, ptr %2, align 8, !tbaa !75
  %3 = load ptr, ptr %2, align 8
  call void @_ZN2cv9AlgorithmC2Ev(ptr noundef nonnull align 8 dereferenceable(8) %3)
  store ptr getelementptr inbounds inrange(-16, 136) ({ [19 x ptr] }, ptr @_ZTVN2cv4text8ERFilterE, i32 0, i32 0, i32 2), ptr %3, align 8, !tbaa !50
  ret void
}

; Function Attrs: mustprogress uwtable
define void @_ZN2cv4text10ERFilterNMC2Ev(ptr noundef nonnull align 8 dereferenceable(160) %0) unnamed_addr #4 align 2 {
  %2 = alloca ptr, align 8
  store ptr %0, ptr %2, align 8, !tbaa !48
  %3 = load ptr, ptr %2, align 8
  call void @_ZN2cv4text8ERFilterC2Ev(ptr noundef nonnull align 8 dereferenceable(8) %3)
  store ptr getelementptr inbounds inrange(-16, 136) ({ [19 x ptr] }, ptr @_ZTVN2cv4text10ERFilterNME, i32 0, i32 0, i32 2), ptr %3, align 8, !tbaa !50
  %4 = getelementptr inbounds nuw %"class.cv::text::ERFilterNM", ptr %3, i32 0, i32 7
  call void @_ZN2cv3PtrINS_4text8ERFilter8CallbackEEC2Ev(ptr noundef nonnull align 8 dereferenceable(16) %4) #3
  %5 = getelementptr inbounds nuw %"class.cv::text::ERFilterNM", ptr %3, i32 0, i32 11
  call void @_ZN2cv3MatC1Ev(ptr noundef nonnull align 8 dereferenceable(96) %5) #3
  %6 = getelementptr inbounds nuw %"class.cv::text::ERFilterNM", ptr %3, i32 0, i32 4
  store i32 1, ptr %6, align 4, !tbaa !52
  %7 = getelementptr inbounds nuw %"class.cv::text::ERFilterNM", ptr %3, i32 0, i32 6
  store float 0.000000e+00, ptr %7, align 4, !tbaa !68
  %8 = getelementptr inbounds nuw %"class.cv::text::ERFilterNM", ptr %3, i32 0, i32 5
  store float 1.000000e+00, ptr %8, align 8, !tbaa !69
  %9 = getelementptr inbounds nuw %"class.cv::text::ERFilterNM", ptr %3, i32 0, i32 1
  store float 0.000000e+00, ptr %9, align 8, !tbaa !70
  %10 = getelementptr inbounds nuw %"class.cv::text::ERFilterNM", ptr %3, i32 0, i32 2
  store i8 0, ptr %10, align 4, !tbaa !71
  %11 = getelementptr inbounds nuw %"class.cv::text::ERFilterNM", ptr %3, i32 0, i32 3
  store float 1.000000e+00, ptr %11, align 8, !tbaa !72
  %12 = getelementptr inbounds nuw %"class.cv::text::ERFilterNM", ptr %3, i32 0, i32 9
  store i32 0, ptr %12, align 4, !tbaa !73
  %13 = getelementptr inbounds nuw %"class.cv::text::ERFilterNM", ptr %3, i32 0, i32 8
  store i32 0, ptr %13, align 8, !tbaa !74
  ret void
}