; Function Attrs: mustprogress uwtable
define void @_ZN2cv4text10ERFilterNMC2Ev(ptr noundef nonnull align 8 dereferenceable(160) %0) unnamed_addr #3 align 2 {
  tail call void @_ZN2cv9AlgorithmC2Ev(ptr noundef nonnull align 8 dereferenceable(8) %0)
  store ptr getelementptr inbounds nuw inrange(-16, 136) (i8, ptr @_ZTVN2cv4text10ERFilterNME, i64 16), ptr %0, align 8, !tbaa !32
  %2 = getelementptr inbounds nuw i8, ptr %0, i64 32
  tail call void @llvm.memset.p0.i64(ptr noundef nonnull align 8 dereferenceable(16) %2, i8 0, i64 16, i1 false)
  %3 = getelementptr inbounds nuw i8, ptr %0, i64 64
  tail call void @_ZN2cv3MatC1Ev(ptr noundef nonnull align 8 dereferenceable(96) %3) #37
  %4 = getelementptr inbounds nuw i8, ptr %0, i64 20
  store i32 1, ptr %4, align 4, !tbaa !46
  %5 = getelementptr inbounds nuw i8, ptr %0, i64 28
  store float 0.000000e+00, ptr %5, align 4, !tbaa !62
  %6 = getelementptr inbounds nuw i8, ptr %0, i64 24
  store float 1.000000e+00, ptr %6, align 8, !tbaa !63
  %7 = getelementptr inbounds nuw i8, ptr %0, i64 8
  store float 0.000000e+00, ptr %7, align 8, !tbaa !64
  %8 = getelementptr inbounds nuw i8, ptr %0, i64 12
  store i8 0, ptr %8, align 4, !tbaa !65
  %9 = getelementptr inbounds nuw i8, ptr %0, i64 16
  store float 1.000000e+00, ptr %9, align 8, !tbaa !66
  %10 = getelementptr inbounds nuw i8, ptr %0, i64 52
  store i32 0, ptr %10, align 4, !tbaa !67
  %11 = getelementptr inbounds nuw i8, ptr %0, i64 48
  store i32 0, ptr %11, align 8, !tbaa !68
  ret void
}